; Function Attrs: mustprogress uwtable
define hidden void @_ZN7nanogui6Widget4drawEP10NVGcontext(ptr nocapture noundef nonnull readonly align 8 dereferenceable(140) %0, ptr noundef %1) unnamed_addr #0 align 2 {
  %3 = getelementptr inbounds i8, ptr %0, i64 64
  %4 = load ptr, ptr %3, align 8
  %5 = getelementptr inbounds i8, ptr %0, i64 72
  %6 = load ptr, ptr %5, align 8
  %7 = icmp eq ptr %4, %6
  br i1 %7, label %45, label %8

8:                                                ; preds = %2
  %9 = getelementptr inbounds i8, ptr %0, i64 40
  %10 = load i32, ptr %9, align 8
  %11 = sitofp i32 %10 to float
  %12 = getelementptr inbounds i8, ptr %0, i64 44
  %13 = load i32, ptr %12, align 4
  %14 = sitofp i32 %13 to float
  tail call void @nvgTranslate(ptr noundef %1, float noundef %11, float noundef %14)
  %15 = load ptr, ptr %3, align 8
  %16 = load ptr, ptr %5, align 8
  %.not19 = icmp eq ptr %15, %16
  br i1 %.not19, label %._crit_edge, label %.lr.ph

.lr.ph:                                           ; preds = %8, %37
  %.sroa.015.020 = phi ptr [ %38, %37 ], [ %15, %8 ]
  %17 = load ptr, ptr %.sroa.015.020, align 8
  %18 = getelementptr inbounds i8, ptr %17, i64 88
  %19 = load i8, ptr %18, align 8
  %20 = and i8 %19, 1
  %.not18 = icmp eq i8 %20, 0
  br i1 %.not18, label %37, label %21

21:                                               ; preds = %.lr.ph
  tail call void @nvgSave(ptr noundef %1)
  %22 = getelementptr inbounds i8, ptr %17, i64 40
  %23 = load i32, ptr %22, align 4
  %24 = sitofp i32 %23 to float
  %25 = getelementptr inbounds i8, ptr %17, i64 44
  %26 = load i32, ptr %25, align 4
  %27 = sitofp i32 %26 to float
  %28 = getelementptr inbounds i8, ptr %17, i64 48
  %29 = load i32, ptr %28, align 4
  %30 = sitofp i32 %29 to float
  %31 = getelementptr inbounds i8, ptr %17, i64 52
  %32 = load i32, ptr %31, align 4
  %33 = sitofp i32 %32 to float
  tail call void @nvgIntersectScissor(ptr noundef %1, float noundef %24, float noundef %27, float noundef %30, float noundef %33)
  %34 = load ptr, ptr %17, align 8
  %35 = getelementptr inbounds i8, ptr %34, i64 112
  %36 = load ptr, ptr %35, align 8
  tail call void %36(ptr noundef nonnull align 8 dereferenceable(140) %17, ptr noundef %1)
  tail call void @nvgRestore(ptr noundef %1)
  br label %37

37:                                               ; preds = %.lr.ph, %21
  %38 = getelementptr inbounds i8, ptr %.sroa.015.020, i64 8
  %.not = icmp eq ptr %38, %16
  br i1 %.not, label %._crit_edge, label %.lr.ph

._crit_edge:                                      ; preds = %37, %8
  %39 = load i32, ptr %9, align 8
  %40 = sub nsw i32 0, %39
  %41 = sitofp i32 %40 to float
  %42 = load i32, ptr %12, align 4
  %43 = sub nsw i32 0, %42
  %44 = sitofp i32 %43 to float
  tail call void @nvgTranslate(ptr noundef %1, float noundef %41, float noundef %44)
  br label %45

45:                                               ; preds = %2, %._crit_edge
  ret void
}